Certificate:
    Data:
        Version: 3 (0x2)
        Serial Number: 2 (0x2)
    Signature Algorithm: sha256WithRSAEncryption
        Issuer: C=cn, ST=sc, L=cd, O=sobey, OU=dev, CN=sobey1.com/emailAddress=wangfugui@sobey.com
        Validity
            Not Before: Aug  2 08:50:57 2017 GMT
            Not After : Aug  2 08:50:57 2022 GMT
        Subject: C=cn, ST=sc, L=cd, O=sobey, OU=dev, CN=sobey1.com/emailAddress=wangfugui@sobey.com
        Subject Public Key Info:
            Public Key Algorithm: rsaEncryption
                Public-Key: (2048 bit)
                Modulus:
                    00:bb:2e:12:7b:25:47:e2:55:2b:4e:b1:1e:c4:ba:
                    d4:3a:4b:c5:e0:7a:e0:e3:7d:1f:99:62:82:c2:85:
                    e8:85:1c:8a:d2:9b:ef:90:cf:a4:a6:87:0a:6a:1a:
                    d0:56:0e:5f:14:ed:a0:61:c8:2e:f9:a9:dd:04:34:
                    ad:25:60:c5:d4:a0:47:6c:a9:5b:0e:c8:4f:f2:4e:
                    58:19:b1:83:1f:2e:13:52:fa:3b:3a:f8:ff:93:80:
                    c8:ce:1a:d9:e2:04:b2:72:41:4e:0a:e1:07:81:ea:
                    62:06:f8:51:ba:73:21:e8:9e:45:ae:8c:1a:7f:44:
                    c4:05:4b:34:38:a7:d5:f9:29:3c:c0:b6:7a:11:68:
                    9e:62:04:45:ed:db:87:45:f1:cb:fa:94:f8:12:62:
                    a6:09:01:dc:ef:09:16:2e:8d:e1:03:cf:de:a6:7b:
                    83:f9:05:97:f5:98:8e:b5:30:e1:ad:f5:52:0d:23:
                    67:b5:70:2e:da:1a:a1:db:de:81:d6:45:40:f6:86:
                    d6:ee:58:94:17:79:97:ac:b3:17:75:f4:de:02:96:
                    56:79:5f:e9:e0:d0:95:57:b2:64:e2:06:47:22:f1:
                    d6:40:fb:31:f9:d3:55:42:0f:0d:17:0a:79:fd:cf:
                    16:f3:bc:1b:a3:fb:df:46:9f:db:fa:06:60:31:b2:
                    01:7f
                Exponent: 65537 (0x10001)
        X509v3 extensions:
            X509v3 Basic Constraints: 
                CA:FALSE
            Netscape Comment: 
                OpenSSL Generated Certificate
            X509v3 Subject Key Identifier: 
                DA:6A:DA:AB:CF:8B:FB:3B:3C:E7:CB:72:6E:FB:D1:E4:BA:F6:FE:8C
            X509v3 Authority Key Identifier: 
                keyid:A3:23:9C:17:C1:CF:A6:D4:25:C8:3F:19:42:F5:2E:91:58:59:34:D2

    Signature Algorithm: sha256WithRSAEncryption
         0b:0a:e0:6a:84:db:81:7d:9d:9c:4c:c8:b6:f0:8a:e0:07:2c:
         fe:b9:9a:4e:57:5e:ff:2f:20:40:8c:32:aa:a4:d9:fb:c0:d0:
         57:9c:3a:94:7d:92:2b:92:d7:20:2b:e9:ba:3c:5e:4a:5e:46:
         c5:17:4b:c0:f3:e2:61:42:1d:c5:0f:67:31:6c:30:38:b8:45:
         25:61:b5:53:0a:9a:37:d0:d1:bb:a4:f2:d9:86:c9:39:d9:6c:
         71:e1:95:8e:ec:5b:d5:9a:82:51:8c:16:2d:9b:32:69:97:ef:
         b2:55:d1:99:5d:c0:38:7a:41:a6:ba:15:c8:ce:f0:4e:e6:ea:
         02:cb:4e:93:f3:bd:e9:8e:d4:2e:bd:7f:c1:02:29:87:03:6c:
         32:50:55:a0:bc:b7:a2:b2:b0:9e:40:f8:d5:99:ae:45:9a:bb:
         0c:25:46:8b:a1:0d:39:2f:f2:25:0e:75:e9:f6:31:b7:cd:c4:
         94:65:bd:fb:6c:99:10:2f:fc:db:82:f4:26:aa:a4:d7:96:cf:
         05:88:fc:08:1b:f3:4b:f8:2f:a9:f7:b7:fd:94:7c:6c:80:f4:
         03:a8:0e:53:5d:7a:28:c1:ec:a7:e8:f1:db:8f:5c:8e:8b:11:
         44:7b:28:6b:65:da:45:2e:6d:a6:1f:05:25:05:70:f6:d4:eb:
         e0:13:9b:04
-----BEGIN CERTIFICATE-----
MIID8jCCAtqgAwIBAgIBAjANBgkqhkiG9w0BAQsFADB+MQswCQYDVQQGEwJjbjEL
MAkGA1UECAwCc2MxCzAJBgNVBAcMAmNkMQ4wDAYDVQQKDAVzb2JleTEMMAoGA1UE
CwwDZGV2MRMwEQYDVQQDDApzb2JleTEuY29tMSIwIAYJKoZIhvcNAQkBFhN3YW5n
ZnVndWlAc29iZXkuY29tMB4XDTE3MDgwMjA4NTA1N1oXDTIyMDgwMjA4NTA1N1ow
fjELMAkGA1UEBhMCY24xCzAJBgNVBAgMAnNjMQswCQYDVQQHDAJjZDEOMAwGA1UE
CgwFc29iZXkxDDAKBgNVBAsMA2RldjETMBEGA1UEAwwKc29iZXkxLmNvbTEiMCAG
CSqGSIb3DQEJARYTd2FuZ2Z1Z3VpQHNvYmV5LmNvbTCCASIwDQYJKoZIhvcNAQEB
BQADggEPADCCAQoCggEBALsuEnslR+JVK06xHsS61DpLxeB64ON9H5ligsKF6IUc
itKb75DPpKaHCmoa0FYOXxTtoGHILvmp3QQ0rSVgxdSgR2ypWw7IT/JOWBmxgx8u
E1L6Ozr4/5OAyM4a2eIEsnJBTgrhB4HqYgb4UbpzIeieRa6MGn9ExAVLNDin1fkp
PMC2ehFonmIERe3bh0Xxy/qU+BJipgkB3O8JFi6N4QPP3qZ7g/kFl/WYjrUw4a31
Ug0jZ7VwLtoaodvegdZFQPaG1u5YlBd5l6yzF3X03gKWVnlf6eDQlVeyZOIGRyLx
1kD7MfnTVUIPDRcKef3PFvO8G6P730af2/oGYDGyAX8CAwEAAaN7MHkwCQYDVR0T
BAIwADAsBglghkgBhvhCAQ0EHxYdT3BlblNTTCBHZW5lcmF0ZWQgQ2VydGlmaWNh
dGUwHQYDVR0OBBYEFNpq2qvPi/s7POfLcm770eS69v6MMB8GA1UdIwQYMBaAFKMj
nBfBz6bUJcg/GUL1LpFYWTTSMA0GCSqGSIb3DQEBCwUAA4IBAQALCuBqhNuBfZ2c
TMi28IrgByz+uZpOV17/LyBAjDKqpNn7wNBXnDqUfZIrktcgK+m6PF5KXkbFF0vA
8+JhQh3FD2cxbDA4uEUlYbVTCpo30NG7pPLZhsk52Wxx4ZWO7FvVmoJRjBYtmzJp
l++yVdGZXcA4ekGmuhXIzvBO5uoCy06T873pjtQuvX/BAimHA2wyUFWgvLeisrCe
QPjVma5FmrsMJUaLoQ05L/IlDnXp9jG3zcSUZb37bJkQL/zbgvQmqqTXls8FiPwI
G/NL+C+p97f9lHxsgPQDqA5TXXooweyn6PHbj1yOixFEeyhrZdpFLm2mHwUlBXD2
1OvgE5sE
-----END CERTIFICATE-----
