Certificate:
    Data:
        Version: 3 (0x2)
        Serial Number: 1 (0x1)
    Signature Algorithm: sha256WithRSAEncryption
        Issuer: C=cn, ST=sc, L=cd, O=sobey, OU=dev, CN=felix.com/emailAddress=wangfugui@sobey.com
        Validity
            Not Before: Aug  2 05:32:20 2017 GMT
            Not After : Aug  2 05:32:20 2022 GMT
        Subject: C=cn, ST=sc, L=cd, O=sobey, OU=dev, CN=felix.com/emailAddress=wangfugui@sobey.com
        Subject Public Key Info:
            Public Key Algorithm: rsaEncryption
                Public-Key: (2048 bit)
                Modulus:
                    00:9d:4b:38:c0:6e:61:38:89:c8:a7:df:29:13:61:
                    be:d7:c6:d6:57:44:65:b0:0e:19:bb:a4:9f:e9:a2:
                    01:0e:62:69:b8:14:25:b9:b3:36:36:9b:60:d9:c4:
                    da:72:30:86:dc:7e:6c:35:d0:66:1f:01:72:93:c1:
                    07:03:94:dd:55:45:1d:8e:75:46:0d:06:ca:97:fe:
                    23:e7:37:c7:5a:53:e5:cf:79:30:38:7d:56:f2:77:
                    ab:16:75:c2:4a:3a:e6:ba:39:ed:b6:d4:18:0e:16:
                    4d:28:ca:58:85:a5:06:89:83:5b:6c:57:9d:74:61:
                    ed:5b:6f:d2:6f:36:66:7c:dd:77:2b:26:04:f1:94:
                    33:b3:2f:94:d4:e1:91:8d:0a:de:42:c4:36:d5:1e:
                    71:30:ae:a7:ec:44:ef:12:9b:09:75:a1:99:83:a3:
                    c4:bf:ff:c2:b3:40:62:87:6f:59:9b:4c:94:29:7d:
                    92:26:38:7c:a4:be:3c:91:76:09:28:6c:62:21:68:
                    35:7f:0e:d3:87:05:56:cf:91:5e:a3:ce:8b:03:60:
                    a4:39:ef:a0:95:d4:ba:1d:be:22:ec:58:6f:c8:97:
                    7a:c7:7b:83:c7:1c:d6:79:93:6e:65:db:b0:77:87:
                    83:a1:97:fa:97:24:a5:66:89:8b:9b:86:2d:2a:a3:
                    01:81
                Exponent: 65537 (0x10001)
        X509v3 extensions:
            X509v3 Basic Constraints: 
                CA:FALSE
            Netscape Comment: 
                OpenSSL Generated Certificate
            X509v3 Subject Key Identifier: 
                36:24:55:D2:58:3B:BC:E5:5D:C5:4B:56:43:4C:EB:18:E1:19:10:9C
            X509v3 Authority Key Identifier: 
                keyid:AE:5D:3A:97:A5:C8:41:A9:E9:C7:8E:04:A5:AF:67:C6:55:9D:42:EA

    Signature Algorithm: sha256WithRSAEncryption
         99:20:3c:71:5b:12:92:9b:73:1c:3f:e9:88:b4:4c:47:04:55:
         6f:00:4c:31:4a:4f:81:0b:81:92:4a:6b:5f:f7:ea:39:75:0f:
         7c:47:af:e0:11:79:2d:c4:af:66:f2:73:4a:0f:c7:e3:cc:00:
         6b:db:6a:78:67:23:9a:dd:a4:2e:81:ff:3f:0c:c2:56:71:83:
         92:fa:86:88:22:31:33:ee:0c:8a:bf:fe:d5:2b:6a:4b:0a:b5:
         02:85:17:01:87:ee:be:85:f9:3b:f1:50:c1:19:32:e2:0e:d5:
         1f:9d:ff:6f:32:b5:df:e6:9b:38:30:a8:5d:d7:14:eb:8f:b9:
         48:5a:70:3d:93:d2:e1:61:88:44:66:2d:a5:10:da:09:b3:ef:
         df:57:1a:ca:13:84:64:d2:75:50:72:61:86:28:50:6a:6e:0e:
         d8:75:be:10:3f:b1:d8:20:25:f9:bd:32:bd:04:a2:7e:9c:9d:
         f9:29:29:83:83:6e:de:c2:42:59:18:03:42:85:e2:b9:84:45:
         3a:88:70:bc:13:64:90:88:ab:21:73:ba:a1:52:7f:fe:46:93:
         31:db:fe:64:57:8b:27:cd:9c:26:22:6c:f5:c5:96:83:b9:88:
         06:4b:6d:a8:60:38:e9:91:c3:eb:4a:58:fd:bd:06:9e:34:fa:
         1b:8f:37:e5
-----BEGIN CERTIFICATE-----
MIID8DCCAtigAwIBAgIBATANBgkqhkiG9w0BAQsFADB9MQswCQYDVQQGEwJjbjEL
MAkGA1UECAwCc2MxCzAJBgNVBAcMAmNkMQ4wDAYDVQQKDAVzb2JleTEMMAoGA1UE
CwwDZGV2MRIwEAYDVQQDDAlmZWxpeC5jb20xIjAgBgkqhkiG9w0BCQEWE3dhbmdm
dWd1aUBzb2JleS5jb20wHhcNMTcwODAyMDUzMjIwWhcNMjIwODAyMDUzMjIwWjB9
MQswCQYDVQQGEwJjbjELMAkGA1UECAwCc2MxCzAJBgNVBAcMAmNkMQ4wDAYDVQQK
DAVzb2JleTEMMAoGA1UECwwDZGV2MRIwEAYDVQQDDAlmZWxpeC5jb20xIjAgBgkq
hkiG9w0BCQEWE3dhbmdmdWd1aUBzb2JleS5jb20wggEiMA0GCSqGSIb3DQEBAQUA
A4IBDwAwggEKAoIBAQCdSzjAbmE4icin3ykTYb7XxtZXRGWwDhm7pJ/pogEOYmm4
FCW5szY2m2DZxNpyMIbcfmw10GYfAXKTwQcDlN1VRR2OdUYNBsqX/iPnN8daU+XP
eTA4fVbyd6sWdcJKOua6Oe221BgOFk0oyliFpQaJg1tsV510Ye1bb9JvNmZ83Xcr
JgTxlDOzL5TU4ZGNCt5CxDbVHnEwrqfsRO8Smwl1oZmDo8S//8KzQGKHb1mbTJQp
fZImOHykvjyRdgkobGIhaDV/DtOHBVbPkV6jzosDYKQ576CV1LodviLsWG/Il3rH
e4PHHNZ5k25l27B3h4Ohl/qXJKVmiYubhi0qowGBAgMBAAGjezB5MAkGA1UdEwQC
MAAwLAYJYIZIAYb4QgENBB8WHU9wZW5TU0wgR2VuZXJhdGVkIENlcnRpZmljYXRl
MB0GA1UdDgQWBBQ2JFXSWDu85V3FS1ZDTOsY4RkQnDAfBgNVHSMEGDAWgBSuXTqX
pchBqenHjgSlr2fGVZ1C6jANBgkqhkiG9w0BAQsFAAOCAQEAmSA8cVsSkptzHD/p
iLRMRwRVbwBMMUpPgQuBkkprX/fqOXUPfEev4BF5LcSvZvJzSg/H48wAa9tqeGcj
mt2kLoH/PwzCVnGDkvqGiCIxM+4Mir/+1StqSwq1AoUXAYfuvoX5O/FQwRky4g7V
H53/bzK13+abODCoXdcU64+5SFpwPZPS4WGIRGYtpRDaCbPv31cayhOEZNJ1UHJh
hihQam4O2HW+ED+x2CAl+b0yvQSifpyd+Skpg4Nu3sJCWRgDQoXiuYRFOohwvBNk
kIirIXO6oVJ//kaTMdv+ZFeLJ82cJiJs9cWWg7mIBkttqGA46ZHD60pY/b0GnjT6
G4835Q==
-----END CERTIFICATE-----
-----BEGIN RSA PRIVATE KEY-----
MIIEowIBAAKCAQEAnUs4wG5hOInIp98pE2G+18bWV0RlsA4Zu6Sf6aIBDmJpuBQl
ubM2Nptg2cTacjCG3H5sNdBmHwFyk8EHA5TdVUUdjnVGDQbKl/4j5zfHWlPlz3kw
OH1W8nerFnXCSjrmujntttQYDhZNKMpYhaUGiYNbbFeddGHtW2/SbzZmfN13KyYE
8ZQzsy+U1OGRjQreQsQ21R5xMK6n7ETvEpsJdaGZg6PEv//Cs0Bih29Zm0yUKX2S
Jjh8pL48kXYJKGxiIWg1fw7ThwVWz5Feo86LA2CkOe+gldS6Hb4i7FhvyJd6x3uD
xxzWeZNuZduwd4eDoZf6lySlZomLm4YtKqMBgQIDAQABAoIBAAkEX+uAKGiiVXNy
Mpue1d7u0ijMjfvKwyTjqhsto1vcvmzEEumTYX895w5034T+TSzkvnVTThdm8NeR
kEJfTVTvEmOxS2PByOlvs0U1CGOgPaNoMiB65vodbBxsgcfZmpKAcaUygXKFSsUU
3IBE1pwZgKs0Vp1uY7oDLhAcEUIFJSbUIW/TMeCizwpYnagpjQNgh95V8pWvKcFo
txbNKLFIpEIadPEXIckhc9GMYZd33LthYh8fkT8yZwkC1mPjmBliPJrQp4E5KmmF
6U26iqi/yXS9KXZ2UdaoDzUv+HzNhPcGz+tP2wl8Cjvv5X7uWF+OWExnR1/gy6w0
sNHm4wECgYEAyU2V4dYPJ7r46D8NJY4o/aehmuXAfeO2FsEQylrER4CuN43Qa7r5
UQiAMh9/E6TidoxMa29iGdyo3HCYPYFtxIQhhyWkr14wQVFdw6SprgRbzLEUHm8I
ymWFjweM99NsBNWB1eVMpNeguYzxOYANylYaA55qCkGaZTj4ORNi4zECgYEAyAhn
TbKcKpNjdr6ZwOmb0WpyUMlKIJIDcH2wQnW6CYqP7iP5tQntGsVx9+sX68GTU5Bf
uXO9wyWYQW/8KIuJE23UAMtk8Nvbch2gO0kEieoR17QECaNwRLDv4dQWpgkQ5vOO
xaeAT4XNHNRo5u597X8Xw/PIlvohiR51WnbNT1ECgYEAhNJmdM5yzXo2xbbki8UT
EtrKbJPvwKDBAp5836eoHq2vRgSSYqLJ4kfDnk7d4C5JJoNH4RNrHTlVSa4ZJWwC
60lrfeq+kN+K4242eeJp+uHxWEv2xGXq3PDDgS4wO00K1t2xf1p+ib2k1QlEGPZ/
IuRQ4dZijUXgA63lSnOaKeECgYAKQ7whVZAD80pAVqmHJ7WyOlchZCLkpvl8NUbt
MiNYx/54xunSa276V7VwdmTk2SsZN6hh2NmdAPneKcPzxK1FDPa7D7TfUzjgkzqc
sDOGbDd8LSWj5Pom3DmDCiIbZQ2z/D2QUPcZnZEX8KJtb0GRBVuP15use6tq4OA+
wyfn8QKBgH0qXChJLAr7dq5ARRvaQ7rBvmwNUcvUgC6ihorSAZ6FdSJ4GcQbISgv
wel4WVdD3H2oVkbgdzyxjalEwGxLzzYbqr0kI3VwNIrgAL23ogOPobM/6RUcOump
4HS1L42CDvF4YJz6Ah3PYHEcJS3pYROXtK1HhgalyhzJBJUqA1qM
-----END RSA PRIVATE KEY-----

