Certificate:
    Data:
        Version: 3 (0x2)
        Serial Number: 3 (0x3)
    Signature Algorithm: sha256WithRSAEncryption
        Issuer: CN=sobey1.com/subjectAltName=DNS.1=sobey1.com
        Validity
            Not Before: Aug  3 05:50:50 2017 GMT
            Not After : Aug  3 05:50:50 2022 GMT
        Subject: CN=sobey1.com
        Subject Public Key Info:
            Public Key Algorithm: rsaEncryption
                Public-Key: (2048 bit)
                Modulus:
                    00:a8:69:ad:e9:61:b2:72:14:4e:3a:e4:f0:26:da:
                    2a:53:8b:6b:f6:96:e2:9e:0f:a3:32:84:87:cc:8d:
                    54:74:b9:49:18:61:46:76:bd:e5:54:0f:30:61:9d:
                    5a:af:69:f3:35:38:3b:59:8b:d5:c9:b6:5f:c8:a4:
                    35:ce:77:5e:5f:96:4d:cf:63:37:97:ce:ad:2a:ae:
                    12:6f:a8:f7:1d:43:a0:fd:52:96:e3:16:19:f6:1c:
                    fb:f3:f7:23:a1:10:eb:e2:02:fb:19:0a:7d:cd:fd:
                    67:46:b1:41:2b:0f:e6:62:3e:17:ef:f8:b3:f3:9d:
                    0a:5c:4d:d9:71:ae:0d:9f:c6:03:4c:40:ca:2c:2e:
                    b6:6b:1b:62:60:c4:ba:79:d8:6b:a8:58:6b:51:ee:
                    10:e7:5a:01:0a:5d:8c:b1:cc:22:f1:2c:1c:d5:56:
                    8a:74:f6:77:ec:d7:10:02:c4:7a:2e:51:47:24:04:
                    96:b3:aa:3a:aa:4c:49:35:00:60:f5:d8:8e:15:67:
                    d3:72:e8:6a:17:b5:1a:6c:33:b7:7e:ae:0d:a1:70:
                    24:ae:1c:75:f6:8a:67:58:8c:69:ac:38:3c:0d:c7:
                    cf:af:c5:aa:14:f2:9e:ba:37:e8:7d:de:1e:37:07:
                    9b:98:d6:7c:67:a7:08:44:25:64:55:fb:96:bc:29:
                    0d:01
                Exponent: 65537 (0x10001)
        X509v3 extensions:
            X509v3 Basic Constraints: 
                CA:FALSE
            Netscape Comment: 
                OpenSSL Generated Certificate
            X509v3 Subject Key Identifier: 
                66:80:41:1D:14:DC:32:C9:83:7A:AD:48:B1:46:B6:BD:7A:19:8C:46
            X509v3 Authority Key Identifier: 
                keyid:B1:36:3B:51:15:CB:C2:75:50:27:D6:05:DA:27:9A:F9:67:9A:52:AB

    Signature Algorithm: sha256WithRSAEncryption
         22:c7:da:e5:8c:73:97:f4:89:e1:aa:b1:b7:27:14:c9:39:6f:
         e1:aa:dc:98:16:8b:c5:5f:6f:ce:c3:37:fc:ac:05:d4:77:55:
         ca:99:48:fc:5a:57:ec:5d:dd:50:6a:35:e7:c8:14:f7:d5:62:
         9d:d7:e6:e1:9b:a8:dd:af:01:47:bf:27:e6:f9:af:ac:b6:d1:
         1a:07:7a:4e:a8:cc:3f:03:94:e1:97:a9:c0:bd:d7:59:bd:1d:
         23:f3:6c:f6:cc:28:2e:3a:00:9c:73:08:11:55:6e:a0:7e:8a:
         0a:00:98:2f:c6:c1:0e:53:84:79:26:a6:df:d7:4d:8f:66:8d:
         66:17:2b:0f:0c:5e:2f:53:28:fc:8a:0e:ff:1e:ac:1a:38:09:
         69:16:9e:3b:9a:33:6e:52:7b:9b:13:df:34:4e:43:88:a5:08:
         02:72:ec:ca:98:2a:8a:0f:63:e4:fd:82:f8:10:4a:0f:bb:7b:
         06:04:2f:ea:e8:b0:58:ef:55:49:47:cb:a7:19:88:32:29:6d:
         24:5e:54:fc:ce:8c:26:1b:1c:07:7f:76:54:f1:fa:16:6e:55:
         02:09:da:b2:7a:b3:d0:06:8f:d3:73:04:68:05:42:1b:fe:69:
         51:3e:a5:64:d0:64:89:af:c6:c3:e2:75:12:59:55:a8:82:31:
         02:43:5e:3a
-----BEGIN CERTIFICATE-----
MIIDOzCCAiOgAwIBAgIBAzANBgkqhkiG9w0BAQsFADAwMRMwEQYDVQQDDApzb2Jl
eTEuY29tMRkwFwYDVR0RDBBETlMuMT1zb2JleTEuY29tMB4XDTE3MDgwMzA1NTA1
MFoXDTIyMDgwMzA1NTA1MFowFTETMBEGA1UEAwwKc29iZXkxLmNvbTCCASIwDQYJ
KoZIhvcNAQEBBQADggEPADCCAQoCggEBAKhprelhsnIUTjrk8CbaKlOLa/aW4p4P
ozKEh8yNVHS5SRhhRna95VQPMGGdWq9p8zU4O1mL1cm2X8ikNc53Xl+WTc9jN5fO
rSquEm+o9x1DoP1SluMWGfYc+/P3I6EQ6+IC+xkKfc39Z0axQSsP5mI+F+/4s/Od
ClxN2XGuDZ/GA0xAyiwutmsbYmDEunnYa6hYa1HuEOdaAQpdjLHMIvEsHNVWinT2
d+zXEALEei5RRyQElrOqOqpMSTUAYPXYjhVn03Loahe1Gmwzt36uDaFwJK4cdfaK
Z1iMaaw4PA3Hz6/FqhTynro36H3eHjcHm5jWfGenCEQlZFX7lrwpDQECAwEAAaN7
MHkwCQYDVR0TBAIwADAsBglghkgBhvhCAQ0EHxYdT3BlblNTTCBHZW5lcmF0ZWQg
Q2VydGlmaWNhdGUwHQYDVR0OBBYEFGaAQR0U3DLJg3qtSLFGtr16GYxGMB8GA1Ud
IwQYMBaAFLE2O1EVy8J1UCfWBdonmvlnmlKrMA0GCSqGSIb3DQEBCwUAA4IBAQAi
x9rljHOX9InhqrG3JxTJOW/hqtyYFovFX2/Owzf8rAXUd1XKmUj8WlfsXd1QajXn
yBT31WKd1+bhm6jdrwFHvyfm+a+sttEaB3pOqMw/A5Thl6nAvddZvR0j82z2zCgu
OgCccwgRVW6gfooKAJgvxsEOU4R5Jqbf102PZo1mFysPDF4vUyj8ig7/HqwaOAlp
Fp47mjNuUnubE980TkOIpQgCcuzKmCqKD2Pk/YL4EEoPu3sGBC/q6LBY71VJR8un
GYgyKW0kXlT8zowmGxwHf3ZU8foWblUCCdqyerPQBo/TcwRoBUIb/mlRPqVk0GSJ
r8bD4nUSWVWogjECQ146
-----END CERTIFICATE-----
-----BEGIN RSA PRIVATE KEY-----
MIIEowIBAAKCAQEAqGmt6WGychROOuTwJtoqU4tr9pbing+jMoSHzI1UdLlJGGFG
dr3lVA8wYZ1ar2nzNTg7WYvVybZfyKQ1zndeX5ZNz2M3l86tKq4Sb6j3HUOg/VKW
4xYZ9hz78/cjoRDr4gL7GQp9zf1nRrFBKw/mYj4X7/iz850KXE3Zca4Nn8YDTEDK
LC62axtiYMS6edhrqFhrUe4Q51oBCl2Mscwi8Swc1VaKdPZ37NcQAsR6LlFHJASW
s6o6qkxJNQBg9diOFWfTcuhqF7UabDO3fq4NoXAkrhx19opnWIxprDg8DcfPr8Wq
FPKeujfofd4eNwebmNZ8Z6cIRCVkVfuWvCkNAQIDAQABAoIBACMHL/vtrQ7bOFY5
jdWW5NzRj9gPE/1qJTh5pkEeWCWa8CAZA23pG0y7iAWVk+oOMF6uXnHGiuXUf+Gc
ffB+lWtuOKrc6RAzFYNeB0mgLB2zFkX6KpX639V3u9PHYGq8uUMd+ZoAu5/fh96F
OZe6S+G9Jn9sDAmsbR47tvFVEVJcp6o9CEDMskD1iF/STlbzW7mcqhzEQ4WXTgF2
0GndakDwwiMGXhbpmBiRqwbo559GDQW8lf1tgvcDDK/M2Yc9KhhLmAux/IBFfTl9
ydqnfjVaruhay5HBkDCBUULCWYWm/rr/vi4NaMaN+kGixA5rdbBqEuXGtrXsK7VI
asSs8i0CgYEA0v7ZWvmYljfFvUOIKzvEZu9dfa2Ts0AUiYt4IbcyRi5DoKilWiz9
HRiZwg2g3xDgStL0XMUCMt/3PMVJ3KyIdqYSS8nL5NJGLkCAAK+cGzgKNhyNYG07
MZn1b47IkpN2leLq/y/6yFHdQUoisAoCwFMAVwvG7dp9Wf3XzP9su7MCgYEAzFWn
iuIv5rztFiFC+sHeQV23pGOb2UokGdv+3jkzTHGRkQGn8kMPNySDQGMVLB4a1Tgc
dSqYUocdoeCc0Yxw4Fx3H0prHT1u0b8hYxN7U//L1MgtyFsk13bIEv98/bWUXBM8
RIF5vzufgb3myDUHVWMtK4DEniqS/oEBGV2iqnsCgYAmeDrPAIUWlnKiMGbqYwpL
Lkdge75bR0q3TUuI8irjatn/t9/2Eg/QN0UJgYycPyp12gKdy3m8JuOgG+R8rKRw
5ZSeZtubC8+p7S6pcVtIBy6tcQVB2IibYZPDVEgzmVlcuLPZ9TiHP43UspyidiDM
ShXcyRPrGBQUzViEUunTSwKBgBbKnwuAuzMTc6Z6Q0xQ/4du+qLdcW7FNE2mGkGT
Q8OND12LP75n+HSAIBu4cY4gNYH+5j2zaJYb+BQsR5GgBp8f8TGOTXBPf+LpXMH+
VE1EROoRAfpNIEjgOOTVlo1+CXRTuO8zOe84qUwBcJJ4R78gdtNZY5T4zriQjxzT
MuetAoGBAIb83oxoBB/Z15nqBlOLn7arS07+zeBQeT6zZp2UTcSN0uDyVTDcetOF
aztkH8zd1lfJIgV2sV7uSADLaoVsqmuRMK0lTbZ96v9qn++NeF7CBTZbhVdMhkJl
0UQAzGQPq2pqqdQSWGyq2tTW9cugUL8fpaVJcvXhYr3YYM3aBOpJ
-----END RSA PRIVATE KEY-----
