Certificate:
    Data:
        Version: 3 (0x2)
        Serial Number: 1 (0x1)
    Signature Algorithm: sha256WithRSAEncryption
        Issuer: CN=sobey
        Validity
            Not Before: Jul 20 05:16:30 2017 GMT
            Not After : Jul 18 05:16:30 2027 GMT
        Subject: CN=VPN.SERVERNAME.COM
        Subject Public Key Info:
            Public Key Algorithm: rsaEncryption
                Public-Key: (2048 bit)
                Modulus:
                    00:e2:e2:60:15:07:60:57:c6:94:ca:34:ab:e0:2c:
                    92:7b:33:c1:0b:4a:33:12:bb:8d:a7:cc:46:21:81:
                    9e:19:fa:12:b0:2b:0a:3e:6a:84:99:8a:d1:c2:62:
                    38:da:a6:d5:06:78:90:c0:74:c8:76:94:cd:ca:33:
                    8a:de:c4:fd:08:3d:8b:6e:4a:96:89:1b:c3:45:54:
                    4c:11:5e:cd:ba:25:94:46:1b:13:95:41:c9:ec:5d:
                    b0:37:3f:bb:35:ab:a4:9e:6d:f1:af:2a:19:d4:b9:
                    46:7e:5e:5d:11:19:67:28:69:fb:5c:6c:25:9d:cf:
                    af:c7:3d:92:0c:4a:ad:39:bb:c2:5b:7c:60:46:24:
                    3a:54:46:8c:c7:b8:34:54:ca:a7:0c:cf:b1:b1:68:
                    2f:10:21:f6:9e:0f:d6:9f:40:8e:ea:df:a0:f7:b2:
                    95:00:75:63:94:0c:e9:1e:36:7b:84:e9:2c:06:aa:
                    ce:49:e7:5c:bc:dc:b3:e0:85:fd:df:27:45:29:8f:
                    09:b6:82:4a:b2:c2:79:d8:90:a5:33:ff:15:c6:ff:
                    9f:7a:de:c8:8b:d0:30:c7:82:18:46:ad:df:d5:2d:
                    18:51:38:0f:8d:2b:40:f1:c8:14:ba:f3:9b:76:ac:
                    ce:c6:1a:88:63:b4:08:bd:67:b3:7a:f6:d5:4c:87:
                    89:e3
                Exponent: 65537 (0x10001)
        X509v3 extensions:
            X509v3 Basic Constraints: 
                CA:FALSE
            X509v3 Subject Key Identifier: 
                0A:F3:EA:33:01:91:C3:30:A4:13:CB:19:CA:55:57:74:36:0F:BC:AD
            X509v3 Authority Key Identifier: 
                keyid:2E:C0:D5:52:04:5B:CB:F2:BA:71:BF:02:ED:5B:38:C5:4B:86:33:2A
                DirName:/CN=sobey
                serial:AA:D0:9F:6F:A2:DD:46:94

            X509v3 Extended Key Usage: 
                TLS Web Server Authentication
            X509v3 Key Usage: 
                Digital Signature, Key Encipherment
    Signature Algorithm: sha256WithRSAEncryption
         58:32:e1:43:27:a5:f9:b8:74:4a:82:e0:0c:f8:38:5c:33:f3:
         7b:93:20:36:bb:3d:fd:34:86:ec:8c:99:48:41:85:9f:96:f9:
         fd:b9:4b:c2:68:b3:79:db:d1:4d:97:10:d9:a8:54:98:a1:a9:
         a5:19:a2:04:74:56:5d:72:f8:a1:3e:63:83:5b:03:05:f3:9f:
         84:8e:d0:90:7d:89:6f:4f:85:2d:9c:b9:aa:f7:76:9b:4e:2c:
         6f:f7:15:45:8e:59:43:02:e8:7f:b8:28:95:92:c2:7b:74:8b:
         e9:e9:f9:8a:49:52:54:07:12:ea:6e:00:34:18:4d:4a:21:8d:
         73:5d:5c:53:23:7a:ff:a8:f4:10:86:db:fa:a9:79:ab:84:02:
         2d:fe:2f:4c:aa:61:6d:bb:03:ff:9f:b5:8e:c9:b9:ab:dc:bb:
         ba:6d:82:35:fe:9e:4c:14:07:40:24:08:56:40:4d:c0:71:0b:
         73:00:35:c9:00:b0:5a:13:8e:25:d3:f6:7b:56:ba:f7:2f:5c:
         87:c9:a6:64:01:3b:51:7a:88:3b:b9:f6:7a:76:4a:8d:b8:4e:
         13:48:ab:7e:e4:16:91:e5:40:74:2e:c4:7b:f5:ba:3e:38:b6:
         49:f4:26:84:4f:ac:2e:40:04:17:e4:4a:95:ab:40:36:dd:ae:
         ff:28:03:5c
-----BEGIN CERTIFICATE-----
MIIDOjCCAiKgAwIBAgIBATANBgkqhkiG9w0BAQsFADAQMQ4wDAYDVQQDDAVzb2Jl
eTAeFw0xNzA3MjAwNTE2MzBaFw0yNzA3MTgwNTE2MzBaMB0xGzAZBgNVBAMMElZQ
Ti5TRVJWRVJOQU1FLkNPTTCCASIwDQYJKoZIhvcNAQEBBQADggEPADCCAQoCggEB
AOLiYBUHYFfGlMo0q+AsknszwQtKMxK7jafMRiGBnhn6ErArCj5qhJmK0cJiONqm
1QZ4kMB0yHaUzcozit7E/Qg9i25Klokbw0VUTBFezbollEYbE5VByexdsDc/uzWr
pJ5t8a8qGdS5Rn5eXREZZyhp+1xsJZ3Pr8c9kgxKrTm7wlt8YEYkOlRGjMe4NFTK
pwzPsbFoLxAh9p4P1p9AjurfoPeylQB1Y5QM6R42e4TpLAaqzknnXLzcs+CF/d8n
RSmPCbaCSrLCediQpTP/Fcb/n3reyIvQMMeCGEat39UtGFE4D40rQPHIFLrzm3as
zsYaiGO0CL1ns3r21UyHieMCAwEAAaOBkTCBjjAJBgNVHRMEAjAAMB0GA1UdDgQW
BBQK8+ozAZHDMKQTyxnKVVd0Ng+8rTBABgNVHSMEOTA3gBQuwNVSBFvL8rpxvwLt
WzjFS4YzKqEUpBIwEDEOMAwGA1UEAwwFc29iZXmCCQCq0J9vot1GlDATBgNVHSUE
DDAKBggrBgEFBQcDATALBgNVHQ8EBAMCBaAwDQYJKoZIhvcNAQELBQADggEBAFgy
4UMnpfm4dEqC4Az4OFwz83uTIDa7Pf00huyMmUhBhZ+W+f25S8Jos3nb0U2XENmo
VJihqaUZogR0Vl1y+KE+Y4NbAwXzn4SO0JB9iW9PhS2cuar3dptOLG/3FUWOWUMC
6H+4KJWSwnt0i+np+YpJUlQHEupuADQYTUohjXNdXFMjev+o9BCG2/qpeauEAi3+
L0yqYW27A/+ftY7Juavcu7ptgjX+nkwUB0AkCFZATcBxC3MANckAsFoTjiXT9ntW
uvcvXIfJpmQBO1F6iDu59np2So24ThNIq37kFpHlQHQuxHv1uj44tkn0JoRPrC5A
BBfkSpWrQDbdrv8oA1w=
-----END CERTIFICATE-----
