Certificate:
    Data:
        Version: 3 (0x2)
        Serial Number: 2 (0x2)
    Signature Algorithm: sha256WithRSAEncryption
        Issuer: CN=sobey
        Validity
            Not Before: Jul 20 05:19:48 2017 GMT
            Not After : Jul 18 05:19:48 2027 GMT
        Subject: CN=CLIENTNAME
        Subject Public Key Info:
            Public Key Algorithm: rsaEncryption
                Public-Key: (2048 bit)
                Modulus:
                    00:ce:ea:a8:cc:4b:52:8e:41:0c:42:1e:a3:d9:4c:
                    dd:cc:f3:67:ff:e8:ac:6d:f2:8c:b9:44:28:bc:e0:
                    19:d0:cb:77:fc:20:f1:35:12:34:c9:17:76:b3:76:
                    7c:8d:2d:a9:3f:74:ec:cb:43:a0:64:75:02:ef:6a:
                    b0:dd:f2:b6:9a:f9:b0:34:b4:f5:2c:ed:3b:5c:ee:
                    07:3d:cf:5d:24:e0:b7:2b:1d:32:df:22:30:1f:1f:
                    e6:a7:d7:b8:dd:6c:59:9b:ed:4d:fc:c2:9d:59:22:
                    a3:34:db:45:82:58:a6:4b:3d:e3:72:ab:66:cb:c4:
                    64:58:56:fc:cf:81:9f:a4:b6:7c:c3:9c:5b:70:f3:
                    f4:4e:72:6a:63:c4:38:2a:34:28:51:a1:0b:21:2c:
                    3d:de:17:3b:83:57:51:ff:d2:e8:ad:d0:31:fc:0e:
                    83:c8:14:dd:c1:ad:49:29:71:ee:ee:7b:3b:d9:f8:
                    25:e2:34:d6:43:47:1a:66:57:7c:87:80:4e:7e:2f:
                    96:a3:35:85:5e:d5:c3:55:0c:22:2c:56:44:d6:99:
                    25:d5:f9:4b:7d:cb:e8:9e:86:37:72:11:d3:89:9c:
                    b2:54:29:94:8c:df:dc:f7:cc:40:aa:f0:96:49:57:
                    f9:1d:fa:96:a1:8e:6f:9e:b9:a5:4e:5c:92:7c:88:
                    fb:9d
                Exponent: 65537 (0x10001)
        X509v3 extensions:
            X509v3 Basic Constraints: 
                CA:FALSE
            X509v3 Subject Key Identifier: 
                C8:80:5C:22:E5:C4:5F:D1:9C:C8:7B:04:96:37:57:DA:03:3E:27:B1
            X509v3 Authority Key Identifier: 
                keyid:2E:C0:D5:52:04:5B:CB:F2:BA:71:BF:02:ED:5B:38:C5:4B:86:33:2A
                DirName:/CN=sobey
                serial:AA:D0:9F:6F:A2:DD:46:94

            X509v3 Extended Key Usage: 
                TLS Web Client Authentication
            X509v3 Key Usage: 
                Digital Signature
    Signature Algorithm: sha256WithRSAEncryption
         75:5e:27:db:7b:0f:6e:17:34:33:01:f3:5d:4d:7a:0e:30:61:
         7e:1d:c2:ed:85:46:88:c6:3b:b4:9e:b1:48:c2:2d:96:26:51:
         24:56:1b:73:92:80:a0:7a:66:70:a5:0d:a5:21:0b:03:57:27:
         18:51:ac:4d:35:91:9d:8a:33:11:28:4b:a6:52:38:75:81:aa:
         e2:10:67:a0:4d:e6:45:db:bb:b6:61:e0:08:a4:29:c7:28:c6:
         55:89:4c:50:e8:c5:29:b6:e9:a3:f7:7a:be:41:37:d6:fc:99:
         19:28:60:fe:13:63:31:98:68:08:c4:ea:ce:aa:48:0f:46:c7:
         1f:cc:f7:4c:d2:cd:5a:4b:75:eb:49:b4:29:f6:05:ef:6a:61:
         f3:40:03:eb:53:19:75:48:c7:0a:89:45:47:05:4a:fd:82:b0:
         b2:f2:6c:ba:a8:52:e1:d8:b1:d0:d3:5c:26:77:d8:71:c5:50:
         9b:7a:6b:9f:55:76:fd:ef:26:65:eb:88:2b:67:14:e3:5b:d6:
         0a:18:40:9a:83:d0:d2:fe:4d:4f:35:e4:3a:bf:04:c7:88:96:
         c1:5a:ea:0f:b9:0c:f4:4a:d0:84:04:46:49:39:9c:28:64:c4:
         aa:ad:84:fb:80:50:ec:2e:04:7c:30:85:7a:36:57:32:88:dc:
         a7:20:4a:d6
-----BEGIN CERTIFICATE-----
MIIDMjCCAhqgAwIBAgIBAjANBgkqhkiG9w0BAQsFADAQMQ4wDAYDVQQDDAVzb2Jl
eTAeFw0xNzA3MjAwNTE5NDhaFw0yNzA3MTgwNTE5NDhaMBUxEzARBgNVBAMMCkNM
SUVOVE5BTUUwggEiMA0GCSqGSIb3DQEBAQUAA4IBDwAwggEKAoIBAQDO6qjMS1KO
QQxCHqPZTN3M82f/6Kxt8oy5RCi84BnQy3f8IPE1EjTJF3azdnyNLak/dOzLQ6Bk
dQLvarDd8raa+bA0tPUs7Ttc7gc9z10k4LcrHTLfIjAfH+an17jdbFmb7U38wp1Z
IqM020WCWKZLPeNyq2bLxGRYVvzPgZ+ktnzDnFtw8/ROcmpjxDgqNChRoQshLD3e
FzuDV1H/0uit0DH8DoPIFN3BrUkpce7uezvZ+CXiNNZDRxpmV3yHgE5+L5ajNYVe
1cNVDCIsVkTWmSXV+Ut9y+iehjdyEdOJnLJUKZSM39z3zECq8JZJV/kd+pahjm+e
uaVOXJJ8iPudAgMBAAGjgZEwgY4wCQYDVR0TBAIwADAdBgNVHQ4EFgQUyIBcIuXE
X9GcyHsEljdX2gM+J7EwQAYDVR0jBDkwN4AULsDVUgRby/K6cb8C7Vs4xUuGMyqh
FKQSMBAxDjAMBgNVBAMMBXNvYmV5ggkAqtCfb6LdRpQwEwYDVR0lBAwwCgYIKwYB
BQUHAwIwCwYDVR0PBAQDAgeAMA0GCSqGSIb3DQEBCwUAA4IBAQB1Xifbew9uFzQz
AfNdTXoOMGF+HcLthUaIxju0nrFIwi2WJlEkVhtzkoCgemZwpQ2lIQsDVycYUaxN
NZGdijMRKEumUjh1gariEGegTeZF27u2YeAIpCnHKMZViUxQ6MUptumj93q+QTfW
/JkZKGD+E2MxmGgIxOrOqkgPRscfzPdM0s1aS3XrSbQp9gXvamHzQAPrUxl1SMcK
iUVHBUr9grCy8my6qFLh2LHQ01wmd9hxxVCbemufVXb97yZl64grZxTjW9YKGECa
g9DS/k1PNeQ6vwTHiJbBWuoPuQz0StCEBEZJOZwoZMSqrYT7gFDsLgR8MIV6Nlcy
iNynIErW
-----END CERTIFICATE-----
